target datalayout = "e-m:e-p270:32:32-p271:32:32-p272:64:64-i64:64-i128:128-f80:128-n8:16:32:64-S128"
target triple = "x86_64-pc-linux-gnu"

%"class.llvm::StringRef" = type { ptr, i64 }
%"class.llvm::MCTargetStreamer" = type { ptr, ptr }

; Function Attrs: mustprogress nounwind uwtable
define linkonce_odr hidden void @_ZN4llvm9StringRefC2EPKcm(ptr noundef nonnull align 8 dereferenceable(16) %0, ptr noundef %1, i64 noundef %2) unnamed_addr #1 comdat align 2 {
  %4 = alloca ptr, align 8
  %5 = alloca ptr, align 8
  %6 = alloca i64, align 8
  store ptr %0, ptr %4, align 8
  store ptr %1, ptr %5, align 8
  store i64 %2, ptr %6, align 8
  %7 = load ptr, ptr %4, align 8
  %8 = getelementptr inbounds nuw %"class.llvm::StringRef", ptr %7, i32 0, i32 0
  %9 = load ptr, ptr %5, align 8
  store ptr %9, ptr %8, align 8
  %10 = getelementptr inbounds nuw %"class.llvm::StringRef", ptr %7, i32 0, i32 1
  %11 = load i64, ptr %6, align 8
  store i64 %11, ptr %10, align 8
  ret void
}

; Function Attrs: mustprogress nounwind uwtable
define linkonce_odr hidden noundef nonnull align 8 dereferenceable(288) ptr @_ZN4llvm16MCTargetStreamer11getStreamerEv(ptr noundef nonnull align 8 dereferenceable(16) %0) #1 comdat align 2 {
  %2 = alloca ptr, align 8
  store ptr %0, ptr %2, align 8
  %3 = load ptr, ptr %2, align 8
  %4 = getelementptr inbounds nuw %"class.llvm::MCTargetStreamer", ptr %3, i32 0, i32 1
  %5 = load ptr, ptr %4, align 8
  ret ptr %5
}

; Function Attrs: mustprogress nounwind uwtable
define dso_local void @_ZN4llvm21AArch64TargetStreamer8emitInstEj(ptr noundef nonnull align 8 dereferenceable(24) %0, i32 noundef %1) unnamed_addr #1 align 2 {
  %3 = alloca ptr, align 8
  %4 = alloca i32, align 4
  %5 = alloca [4 x i8], align 1
  %6 = alloca ptr, align 8
  %7 = alloca ptr, align 8
  %8 = alloca ptr, align 8
  %9 = alloca ptr, align 8
  %10 = alloca %"class.llvm::StringRef", align 8
  store ptr %0, ptr %3, align 8
  store i32 %1, ptr %4, align 4
  %11 = load ptr, ptr %3, align 8
  store ptr %5, ptr %6, align 8
  %12 = load ptr, ptr %6, align 8
  %13 = getelementptr inbounds [4 x i8], ptr %12, i64 0, i64 0
  store ptr %13, ptr %7, align 8
  %14 = load ptr, ptr %6, align 8
  %15 = getelementptr inbounds [4 x i8], ptr %14, i64 0, i64 0
  %16 = getelementptr inbounds i8, ptr %15, i64 4
  store ptr %16, ptr %8, align 8
  br label %17

17:                                               ; preds = %28, %2
  %18 = load ptr, ptr %7, align 8
  %19 = load ptr, ptr %8, align 8
  %20 = icmp ne ptr %18, %19
  br i1 %20, label %21, label %31

21:                                               ; preds = %17
  %22 = load ptr, ptr %7, align 8
  store ptr %22, ptr %9, align 8
  %23 = load i32, ptr %4, align 4
  %24 = trunc i32 %23 to i8
  %25 = load ptr, ptr %9, align 8
  store i8 %24, ptr %25, align 1
  %26 = load i32, ptr %4, align 4
  %27 = lshr i32 %26, 8
  store i32 %27, ptr %4, align 4
  br label %28

28:                                               ; preds = %21
  %29 = load ptr, ptr %7, align 8
  %30 = getelementptr inbounds i8, ptr %29, i32 1
  store ptr %30, ptr %7, align 8
  br label %17

31:                                               ; preds = %17
  %32 = call noundef nonnull align 8 dereferenceable(288) ptr @_ZN4llvm16MCTargetStreamer11getStreamerEv(ptr noundef nonnull align 8 dereferenceable(16) %11)
  %33 = getelementptr inbounds [4 x i8], ptr %5, i64 0, i64 0
  call void @_ZN4llvm9StringRefC2EPKcm(ptr noundef nonnull align 8 dereferenceable(16) %10, ptr noundef %33, i64 noundef 4)
  %34 = getelementptr inbounds nuw { ptr, i64 }, ptr %10, i32 0, i32 0
  %35 = load ptr, ptr %34, align 8
  %36 = getelementptr inbounds nuw { ptr, i64 }, ptr %10, i32 0, i32 1
  %37 = load i64, ptr %36, align 8
  %38 = load ptr, ptr %32, align 8
  %39 = getelementptr inbounds ptr, ptr %38, i64 62
  %40 = load ptr, ptr %39, align 8
  call void %40(ptr noundef nonnull align 8 dereferenceable(288) %32, ptr %35, i64 %37)
  ret void
}