; Function Attrs: mustprogress nounwind uwtable
define dso_local void @_ZN4llvm21AArch64TargetStreamer8emitInstEj(ptr nocapture noundef nonnull readonly align 8 dereferenceable(24) %0, i32 noundef %1) unnamed_addr #0 align 2 {
  %3 = alloca [4 x i8], align 1
  br label %4

4:                                                ; preds = %2, %4
  %.011 = phi i32 [ %1, %2 ], [ %6, %4 ]
  %.09.idx10 = phi i64 [ 0, %2 ], [ %.09.add, %4 ]
  %.09.ptr = getelementptr inbounds i8, ptr %3, i64 %.09.idx10
  %5 = trunc i32 %.011 to i8
  store i8 %5, ptr %.09.ptr, align 1
  %6 = lshr i32 %.011, 8
  %.09.add = add nuw nsw i64 %.09.idx10, 1
  %.not = icmp eq i64 %.09.add, 4
  br i1 %.not, label %7, label %4

7:                                                ; preds = %4
  %8 = getelementptr inbounds nuw i8, ptr %0, i64 8
  %9 = load ptr, ptr %8, align 8
  %10 = load ptr, ptr %9, align 8
  %11 = getelementptr inbounds i8, ptr %10, i64 496
  %12 = load ptr, ptr %11, align 8
  call void %12(ptr noundef nonnull align 8 dereferenceable(288) %9, ptr nonnull %3, i64 4) #10
  ret void
}